; Function Attrs: nounwind uwtable
define internal void @srt_color_cb(ptr noundef %0, i32 noundef %1, i32 noundef %2) #1 {
  %4 = icmp ugt i32 %2, 1
  br i1 %4, label %srt_stack_push_pop.exit, label %5

5:                                                ; preds = %3
  %.not = icmp eq i32 %1, -1
  %6 = getelementptr inbounds nuw i8, ptr %0, i64 1104
  %7 = load i32, ptr %6, align 8, !tbaa !58
  br i1 %.not, label %8, label %33

8:                                                ; preds = %5
  %9 = getelementptr inbounds nuw i8, ptr %0, i64 1040
  %10 = zext i32 %7 to i64
  %smin.i.i = tail call i32 @llvm.smin.i32(i32 %7, i32 0)
  %11 = add i32 %smin.i.i, -1
  br label %12

12:                                               ; preds = %15, %8
  %indvars.iv.i.i = phi i64 [ %indvars.iv.next.i.i, %15 ], [ %10, %8 ]
  %13 = trunc nuw i64 %indvars.iv.i.i to i32
  %14 = icmp sgt i32 %13, 0
  br i1 %14, label %15, label %srt_stack_find.exit.i

15:                                               ; preds = %12
  %indvars.iv.next.i.i = add nsw i64 %indvars.iv.i.i, -1
  %16 = and i64 %indvars.iv.next.i.i, 4294967295
  %17 = getelementptr inbounds nuw [64 x i8], ptr %9, i64 0, i64 %16
  %18 = load i8, ptr %17, align 1, !tbaa !59
  %19 = icmp eq i8 %18, 102
  br i1 %19, label %.split.loop.exit.i.i, label %12, !llvm.loop !64

.split.loop.exit.i.i:                             ; preds = %15
  %indvars.le.i.i = trunc i64 %indvars.iv.next.i.i to i32
  br label %srt_stack_find.exit.i

srt_stack_find.exit.i:                            ; preds = %12, %.split.loop.exit.i.i
  %20 = phi i32 [ %indvars.le.i.i, %.split.loop.exit.i.i ], [ %11, %12 ]
  %21 = icmp slt i32 %20, 0
  %.not1217.i = icmp eq i32 %7, %20
  %or.cond = select i1 %21, i1 true, i1 %.not1217.i
  br i1 %or.cond, label %srt_stack_push_pop.exit, label %.lr.ph.i

.lr.ph.i:                                         ; preds = %srt_stack_find.exit.i, %srt_stack_pop.exit.thread.i
  %22 = phi i32 [ %32, %srt_stack_pop.exit.thread.i ], [ %7, %srt_stack_find.exit.i ]
  %23 = icmp slt i32 %22, 1
  br i1 %23, label %srt_stack_pop.exit.thread.i, label %srt_stack_pop.exit.i

srt_stack_pop.exit.i:                             ; preds = %.lr.ph.i
  %24 = add nsw i32 %22, -1
  store i32 %24, ptr %6, align 8, !tbaa !58
  %25 = zext nneg i32 %24 to i64
  %26 = getelementptr inbounds nuw [64 x i8], ptr %9, i64 0, i64 %25
  %27 = load i8, ptr %26, align 1, !tbaa !59
  %.fr.i = freeze i8 %27
  %28 = sext i8 %.fr.i to i32
  %29 = icmp eq i8 %.fr.i, 102
  %spec.select.i = select i1 %29, ptr @.str.21, ptr @.str.22
  br label %srt_stack_pop.exit.thread.i

srt_stack_pop.exit.thread.i:                      ; preds = %srt_stack_pop.exit.i, %.lr.ph.i
  %30 = phi i32 [ 0, %.lr.ph.i ], [ %28, %srt_stack_pop.exit.i ]
  %31 = phi ptr [ @.str.22, %.lr.ph.i ], [ %spec.select.i, %srt_stack_pop.exit.i ]
  tail call void (ptr, ptr, ...) @srt_print(ptr noundef nonnull %0, ptr noundef nonnull @.str.20, i32 noundef %30, ptr noundef nonnull %31)
  %32 = load i32, ptr %6, align 8, !tbaa !58
  %.not12.i = icmp eq i32 %32, %20
  br i1 %.not12.i, label %srt_stack_push_pop.exit, label %.lr.ph.i, !llvm.loop !65

33:                                               ; preds = %5
  %34 = icmp sgt i32 %7, 63
  br i1 %34, label %39, label %srt_stack_push.exit.i

srt_stack_push.exit.i:                            ; preds = %33
  %35 = getelementptr inbounds nuw i8, ptr %0, i64 1040
  %36 = add nsw i32 %7, 1
  store i32 %36, ptr %6, align 8, !tbaa !58
  %37 = sext i32 %7 to i64
  %38 = getelementptr inbounds [64 x i8], ptr %35, i64 0, i64 %37
  store i8 102, ptr %38, align 1, !tbaa !59
  br label %srt_stack_push_pop.exit.thread

39:                                               ; preds = %33
  %40 = load ptr, ptr %0, align 8, !tbaa !27
  tail call void (ptr, i32, ptr, ...) @av_log(ptr noundef %40, i32 noundef 16, ptr noundef nonnull @.str.19) #8
  br label %srt_stack_push_pop.exit.thread

srt_stack_push_pop.exit.thread:                   ; preds = %39, %srt_stack_push.exit.i
  %41 = lshr i32 %1, 16
  %42 = and i32 %41, 255
  %43 = and i32 %1, 65280
  %44 = or disjoint i32 %42, %43
  %45 = shl i32 %1, 16
  %46 = and i32 %45, 16711680
  %47 = or disjoint i32 %44, %46
  tail call void (ptr, ptr, ...) @srt_print(ptr noundef nonnull %0, ptr noundef nonnull @.str.23, i32 noundef %47)
  br label %srt_stack_push_pop.exit

srt_stack_push_pop.exit:                          ; preds = %srt_stack_pop.exit.thread.i, %srt_stack_find.exit.i, %3, %srt_stack_push_pop.exit.thread
  ret void
}